; Function Attrs: mustprogress uwtable
define range(i32 0, -2147483648) i32 @uprv_asciiFromEbcdic_77(ptr noundef %0, ptr noundef readonly %1, i32 noundef %2, ptr noundef writeonly %3, ptr noundef %4) local_unnamed_addr #2 {
  %6 = icmp eq ptr %4, null
  br i1 %6, label %.loopexit, label %7

7:                                                ; preds = %5
  %8 = load i32, ptr %4, align 4, !tbaa !15
  %9 = icmp slt i32 %8, 1
  br i1 %9, label %10, label %.loopexit

10:                                               ; preds = %7
  %11 = icmp eq ptr %0, null
  %12 = icmp eq ptr %1, null
  %or.cond = or i1 %11, %12
  %13 = icmp slt i32 %2, 0
  %or.cond3 = or i1 %or.cond, %13
  br i1 %or.cond3, label %.loopexit.sink.split, label %14

14:                                               ; preds = %10
  %15 = icmp ne i32 %2, 0
  %16 = icmp eq ptr %3, null
  %or.cond5 = and i1 %15, %16
  br i1 %or.cond5, label %.loopexit.sink.split, label %.preheader

.preheader:                                       ; preds = %14
  %.not = icmp eq i32 %2, 0
  br i1 %.not, label %.loopexit, label %.lr.ph

.lr.ph:                                           ; preds = %.preheader, %34
  %.050 = phi i32 [ %36, %34 ], [ %2, %.preheader ]
  %.03649 = phi ptr [ %35, %34 ], [ %3, %.preheader ]
  %.03748 = phi ptr [ %17, %34 ], [ %1, %.preheader ]
  %17 = getelementptr inbounds nuw i8, ptr %.03748, i64 1
  %18 = load i8, ptr %.03748, align 1, !tbaa !3
  %.not44 = icmp eq i8 %18, 0
  br i1 %.not44, label %34, label %19

19:                                               ; preds = %.lr.ph
  %20 = zext i8 %18 to i64
  %21 = getelementptr inbounds nuw [256 x i8], ptr @_ZL15asciiFromEbcdic, i64 0, i64 %20
  %22 = load i8, ptr %21, align 1, !tbaa !3
  %.not45 = icmp eq i8 %22, 0
  br i1 %.not45, label %32, label %23

23:                                               ; preds = %19
  %24 = zext i8 %22 to i32
  %25 = lshr i32 %24, 5
  %26 = zext nneg i32 %25 to i64
  %27 = getelementptr inbounds nuw [4 x i32], ptr @_ZL14invariantChars, i64 0, i64 %26
  %28 = load i32, ptr %27, align 4, !tbaa !10
  %29 = and i32 %24, 31
  %30 = shl nuw i32 1, %29
  %31 = and i32 %28, %30
  %.not46 = icmp eq i32 %31, 0
  br i1 %.not46, label %32, label %34

32:                                               ; preds = %23, %19
  %33 = sub nsw i32 %2, %.050
  tail call void (ptr, ptr, ...) @udata_printError_77(ptr noundef %0, ptr noundef nonnull @.str.2, i32 noundef %2, i32 noundef %33)
  br label %.loopexit.sink.split

34:                                               ; preds = %23, %.lr.ph
  %.035 = phi i8 [ %22, %23 ], [ 0, %.lr.ph ]
  %35 = getelementptr inbounds nuw i8, ptr %.03649, i64 1
  store i8 %.035, ptr %.03649, align 1, !tbaa !3
  %36 = add nsw i32 %.050, -1
  %37 = icmp sgt i32 %.050, 1
  br i1 %37, label %.lr.ph, label %.loopexit, !llvm.loop !19

.loopexit.sink.split:                             ; preds = %10, %14, %32
  %.sink = phi i32 [ 10, %32 ], [ 1, %14 ], [ 1, %10 ]
  store i32 %.sink, ptr %4, align 4, !tbaa !15
  br label %.loopexit

.loopexit:                                        ; preds = %34, %.loopexit.sink.split, %.preheader, %5, %7
  %.038 = phi i32 [ 0, %7 ], [ 0, %5 ], [ 0, %.preheader ], [ 0, %.loopexit.sink.split ], [ %2, %34 ]
  ret i32 %.038
}